(lp0
(S'cppflags'
p1
ccopy_reg
_reconstructor
p2
(cino.utils
SpaceList
p3
c__builtin__
list
p4
(lp5
S'-mmcu=atmega328p'
p6
aS'-DF_CPU=16000000L'
p7
aS'-DARDUINO=103'
p8
aS'-I/usr/share/arduino/hardware/arduino/cores/arduino'
p9
aS'-ffunction-sections'
p10
aS'-fdata-sections'
p11
aS'-g'
p12
aS'-Os'
p13
aS'-w'
p14
aS'-I/usr/share/arduino/hardware/arduino/variants/standard'
p15
aS'-I/usr/share/arduino/libraries/EEPROM'
p16
aS'-I/usr/share/arduino/libraries/LCD5110_Graph'
p17
aS'-I/usr/share/arduino/libraries/LCD5110_Graph/hardware'
p18
aS'-I/usr/share/arduino/libraries/LCD5110_Graph/hardware/arm'
p19
aS'-I/usr/share/arduino/libraries/LCD5110_Graph/hardware/pic32'
p20
aS'-I/usr/share/arduino/libraries/LCD5110_Graph/hardware/avr'
p21
aS'-I/usr/share/arduino/libraries/VirtualWire'
p22
aS'-I/usr/share/arduino/libraries/VirtualWire/doc'
p23
aS'-I/usr/share/arduino/libraries/VirtualWire/util'
p24
aS'-I/usr/share/arduino/libraries/MemoryFree'
p25
aS'-I/usr/share/arduino/hardware/arduino/cores/arduino'
p26
atp27
Rp28
tp29
a(S'version.txt'
p30
S'/usr/share/arduino/lib/version.txt'
p31
tp32
a(S'used_libs'
p33
(lp34
S'/usr/share/arduino/libraries/EEPROM'
p35
aS'/usr/share/arduino/libraries/LCD5110_Graph'
p36
aS'/usr/share/arduino/libraries/VirtualWire'
p37
aS'/usr/share/arduino/libraries/MemoryFree'
p38
aS'/usr/share/arduino/hardware/arduino/cores/arduino'
p39
atp40
a(S'cc'
p41
S'/usr/bin/avr-gcc'
p42
tp43
a(S'make'
p44
S'/usr/bin/make'
p45
tp46
a(S'build_dir'
p47
S'.build/uno'
p48
tp49
a(S'arduino_core_dir'
p50
g39
tp51
a(S'boards.txt'
p52
S'/usr/share/arduino/hardware/arduino/boards.txt'
p53
tp54
a(S'cxxflags'
p55
g2
(g3
g4
(lp56
S'-fno-exceptions'
p57
atp58
Rp59
tp60
a(S'arduino_variants_dir'
p61
S'/usr/share/arduino/hardware/arduino/variants'
p62
tp63
a(S'deps'
p64
g2
(g3
g4
(lp65
S'.build/uno/src/dependencies.d'
p66
aS'.build/uno/arduino/dependencies.d'
p67
aS'.build/uno/EEPROM/dependencies.d'
p68
aS'.build/uno/LCD5110_Graph/dependencies.d'
p69
aS'.build/uno/VirtualWire/dependencies.d'
p70
aS'.build/uno/MemoryFree/dependencies.d'
p71
atp72
Rp73
tp74
a(S'ar'
p75
S'/usr/bin/avr-ar'
p76
tp77
a(S'names'
p78
(dp79
S'cpp'
p80
S'%s.cpp'
p81
sS'obj'
p82
S'%s.o'
p83
sg64
S'%s.d'
p84
sS'lib'
p85
S'lib%s.a'
p86
stp87
a(S'cflags'
p88
g2
(g3
g4
(lp89
tp90
Rp91
tp92
a(S'ldflags'
p93
g2
(g3
g4
(lp94
g6
aS'-Wl,-Os'
p95
aS'-Wl,--gc-sections'
p96
atp97
Rp98
tp99
a(S'arduino_libraries_dir'
p100
S'/usr/share/arduino/libraries'
p101
tp102
a(S'arduino_lib_version'
p103
g2
(cino.environment
Version
p104
c__builtin__
tuple
p105
(I1
I0
I3
tp106
tp107
Rp108
tp109
a(S'objcopy'
p110
S'/usr/bin/avr-objcopy'
p111
tp112
a(S'board_models'
p113
cino.environment
BoardModels
p114
((lp115
(lp116
S'uno'
p117
a(dp118
S'build'
p119
(dp120
S'core'
p121
S'arduino'
p122
sS'mcu'
p123
S'atmega328p'
p124
sS'f_cpu'
p125
S'16000000L'
p126
sS'variant'
p127
S'standard'
p128
ssS'bootloader'
p129
(dp130
S'extended_fuses'
p131
S'0x05'
p132
sS'high_fuses'
p133
S'0xde'
p134
sS'low_fuses'
p135
S'0xff'
p136
sS'lock_bits'
p137
S'0x0F'
p138
sS'file'
p139
S'optiboot_atmega328.hex'
p140
sS'path'
p141
S'optiboot'
p142
sS'unlock_bits'
p143
S'0x3F'
p144
ssS'name'
p145
S'Arduino Uno'
p146
sS'upload'
p147
(dp148
S'speed'
p149
S'115200'
p150
sS'maximum_size'
p151
S'32256'
p152
sS'protocol'
p153
S'arduino'
p154
ssaa(lp155
S'atmega328'
p156
a(dp157
S'build'
p158
(dp159
S'core'
p160
S'arduino'
p161
sS'mcu'
p162
S'atmega328p'
p163
sS'f_cpu'
p164
S'16000000L'
p165
sS'variant'
p166
S'standard'
p167
ssS'bootloader'
p168
(dp169
S'extended_fuses'
p170
S'0x05'
p171
sS'high_fuses'
p172
S'0xDA'
p173
sS'low_fuses'
p174
S'0xFF'
p175
sS'lock_bits'
p176
S'0x0F'
p177
sS'file'
p178
S'ATmegaBOOT_168_atmega328.hex'
p179
sS'path'
p180
S'atmega'
p181
sS'unlock_bits'
p182
S'0x3F'
p183
ssS'name'
p184
S'Arduino Duemilanove w/ ATmega328'
p185
sS'upload'
p186
(dp187
S'speed'
p188
S'57600'
p189
sS'maximum_size'
p190
S'30720'
p191
sS'protocol'
p192
S'arduino'
p193
ssaa(lp194
S'diecimila'
p195
a(dp196
S'build'
p197
(dp198
S'core'
p199
S'arduino'
p200
sS'mcu'
p201
S'atmega168'
p202
sS'f_cpu'
p203
S'16000000L'
p204
sS'variant'
p205
S'standard'
p206
ssS'bootloader'
p207
(dp208
S'extended_fuses'
p209
S'0x00'
p210
sS'high_fuses'
p211
S'0xdd'
p212
sS'low_fuses'
p213
S'0xff'
p214
sS'lock_bits'
p215
S'0x0F'
p216
sS'file'
p217
S'ATmegaBOOT_168_diecimila.hex'
p218
sS'path'
p219
S'atmega'
p220
sS'unlock_bits'
p221
S'0x3F'
p222
ssS'name'
p223
S'Arduino Diecimila or Duemilanove w/ ATmega168'
p224
sS'upload'
p225
(dp226
S'speed'
p227
S'19200'
p228
sS'maximum_size'
p229
S'14336'
p230
sS'protocol'
p231
S'arduino'
p232
ssaa(lp233
S'nano328'
p234
a(dp235
S'build'
p236
(dp237
S'core'
p238
S'arduino'
p239
sS'mcu'
p240
S'atmega328p'
p241
sS'f_cpu'
p242
S'16000000L'
p243
sS'variant'
p244
S'eightanaloginputs'
p245
ssS'bootloader'
p246
(dp247
S'extended_fuses'
p248
S'0x05'
p249
sS'high_fuses'
p250
S'0xDA'
p251
sS'low_fuses'
p252
S'0xFF'
p253
sS'lock_bits'
p254
S'0x0F'
p255
sS'file'
p256
S'ATmegaBOOT_168_atmega328.hex'
p257
sS'path'
p258
S'atmega'
p259
sS'unlock_bits'
p260
S'0x3F'
p261
ssS'name'
p262
S'Arduino Nano w/ ATmega328'
p263
sS'upload'
p264
(dp265
S'speed'
p266
S'57600'
p267
sS'maximum_size'
p268
S'30720'
p269
sS'protocol'
p270
S'arduino'
p271
ssaa(lp272
S'nano'
p273
a(dp274
S'build'
p275
(dp276
S'core'
p277
S'arduino'
p278
sS'mcu'
p279
S'atmega168'
p280
sS'f_cpu'
p281
S'16000000L'
p282
sS'variant'
p283
S'eightanaloginputs'
p284
ssS'bootloader'
p285
(dp286
S'extended_fuses'
p287
S'0x00'
p288
sS'high_fuses'
p289
S'0xdd'
p290
sS'low_fuses'
p291
S'0xff'
p292
sS'lock_bits'
p293
S'0x0F'
p294
sS'file'
p295
S'ATmegaBOOT_168_diecimila.hex'
p296
sS'path'
p297
S'atmega'
p298
sS'unlock_bits'
p299
S'0x3F'
p300
ssS'name'
p301
S'Arduino Nano w/ ATmega168'
p302
sS'upload'
p303
(dp304
S'speed'
p305
S'19200'
p306
sS'maximum_size'
p307
S'14336'
p308
sS'protocol'
p309
S'arduino'
p310
ssaa(lp311
S'mega2560'
p312
a(dp313
S'build'
p314
(dp315
S'core'
p316
S'arduino'
p317
sS'mcu'
p318
S'atmega2560'
p319
sS'f_cpu'
p320
S'16000000L'
p321
sS'variant'
p322
S'mega'
p323
ssS'bootloader'
p324
(dp325
S'extended_fuses'
p326
S'0xFD'
p327
sS'high_fuses'
p328
S'0xD8'
p329
sS'low_fuses'
p330
S'0xFF'
p331
sS'lock_bits'
p332
S'0x0F'
p333
sS'file'
p334
S'stk500boot_v2_mega2560.hex'
p335
sS'path'
p336
S'stk500v2'
p337
sS'unlock_bits'
p338
S'0x3F'
p339
ssS'name'
p340
S'Arduino Mega 2560 or Mega ADK'
p341
sS'upload'
p342
(dp343
S'speed'
p344
S'115200'
p345
sS'maximum_size'
p346
S'258048'
p347
sS'protocol'
p348
S'wiring'
p349
ssaa(lp350
S'mega'
p351
a(dp352
S'build'
p353
(dp354
S'core'
p355
S'arduino'
p356
sS'mcu'
p357
S'atmega1280'
p358
sS'f_cpu'
p359
S'16000000L'
p360
sS'variant'
p361
S'mega'
p362
ssS'bootloader'
p363
(dp364
S'extended_fuses'
p365
S'0xF5'
p366
sS'high_fuses'
p367
S'0xDA'
p368
sS'low_fuses'
p369
S'0xFF'
p370
sS'lock_bits'
p371
S'0x0F'
p372
sS'file'
p373
S'ATmegaBOOT_168_atmega1280.hex'
p374
sS'path'
p375
S'atmega'
p376
sS'unlock_bits'
p377
S'0x3F'
p378
ssS'name'
p379
S'Arduino Mega (ATmega1280)'
p380
sS'upload'
p381
(dp382
S'speed'
p383
S'57600'
p384
sS'maximum_size'
p385
S'126976'
p386
sS'protocol'
p387
S'arduino'
p388
ssaa(lp389
S'leonardo'
p390
a(dp391
S'build'
p392
(dp393
S'core'
p394
S'arduino'
p395
sS'f_cpu'
p396
S'16000000L'
p397
sS'vid'
p398
S'0x2341'
p399
sS'pid'
p400
S'0x8036'
p401
sS'variant'
p402
S'leonardo'
p403
sS'mcu'
p404
S'atmega32u4'
p405
ssS'bootloader'
p406
(dp407
S'extended_fuses'
p408
S'0xcb'
p409
sS'high_fuses'
p410
S'0xd8'
p411
sS'low_fuses'
p412
S'0xff'
p413
sS'lock_bits'
p414
S'0x2F'
p415
sS'file'
p416
S'Caterina-Leonardo.hex'
p417
sS'path'
p418
S'caterina'
p419
sS'unlock_bits'
p420
S'0x3F'
p421
ssS'name'
p422
S'Arduino Leonardo'
p423
sS'upload'
p424
(dp425
S'speed'
p426
S'57600'
p427
sS'maximum_size'
p428
S'28672'
p429
sS'protocol'
p430
S'avr109'
p431
sS'disable_flushing'
p432
S'true'
p433
ssaa(lp434
S'esplora'
p435
a(dp436
S'build'
p437
(dp438
S'core'
p439
S'arduino'
p440
sS'f_cpu'
p441
S'16000000L'
p442
sS'vid'
p443
S'0x2341'
p444
sS'pid'
p445
S'0x803C'
p446
sS'variant'
p447
S'leonardo'
p448
sS'mcu'
p449
S'atmega32u4'
p450
ssS'bootloader'
p451
(dp452
S'extended_fuses'
p453
S'0xcb'
p454
sS'high_fuses'
p455
S'0xd8'
p456
sS'low_fuses'
p457
S'0xff'
p458
sS'lock_bits'
p459
S'0x2F'
p460
sS'file'
p461
S'Caterina-Esplora.hex'
p462
sS'path'
p463
S'caterina'
p464
sS'unlock_bits'
p465
S'0x3F'
p466
ssS'name'
p467
S'Arduino Esplora'
p468
sS'upload'
p469
(dp470
S'speed'
p471
S'57600'
p472
sS'maximum_size'
p473
S'28672'
p474
sS'protocol'
p475
S'avr109'
p476
sS'disable_flushing'
p477
S'true'
p478
ssaa(lp479
S'micro'
p480
a(dp481
S'build'
p482
(dp483
S'core'
p484
S'arduino'
p485
sS'f_cpu'
p486
S'16000000L'
p487
sS'vid'
p488
S'0x2341'
p489
sS'pid'
p490
S'0x8037'
p491
sS'variant'
p492
S'micro'
p493
sS'mcu'
p494
S'atmega32u4'
p495
ssS'bootloader'
p496
(dp497
S'extended_fuses'
p498
S'0xcb'
p499
sS'high_fuses'
p500
S'0xd8'
p501
sS'low_fuses'
p502
S'0xff'
p503
sS'lock_bits'
p504
S'0x2F'
p505
sS'file'
p506
S'Caterina-Micro.hex'
p507
sS'path'
p508
S'caterina'
p509
sS'unlock_bits'
p510
S'0x3F'
p511
ssS'name'
p512
S'Arduino Micro'
p513
sS'upload'
p514
(dp515
S'speed'
p516
S'57600'
p517
sS'maximum_size'
p518
S'28672'
p519
sS'protocol'
p520
S'avr109'
p521
sS'disable_flushing'
p522
S'true'
p523
ssaa(lp524
S'mini328'
p525
a(dp526
S'build'
p527
(dp528
S'core'
p529
S'arduino'
p530
sS'mcu'
p531
S'atmega328p'
p532
sS'f_cpu'
p533
S'16000000L'
p534
sS'variant'
p535
S'eightanaloginputs'
p536
ssS'bootloader'
p537
(dp538
S'extended_fuses'
p539
S'0x05'
p540
sS'high_fuses'
p541
S'0xd8'
p542
sS'low_fuses'
p543
S'0xff'
p544
sS'lock_bits'
p545
S'0x0F'
p546
sS'file'
p547
S'optiboot_atmega328-Mini.hex'
p548
sS'path'
p549
S'optiboot'
p550
sS'unlock_bits'
p551
S'0x3F'
p552
ssS'name'
p553
S'Arduino Mini w/ ATmega328'
p554
sS'upload'
p555
(dp556
S'speed'
p557
S'115200'
p558
sS'maximum_size'
p559
S'28672'
p560
sS'protocol'
p561
S'arduino'
p562
ssaa(lp563
S'mini'
p564
a(dp565
S'build'
p566
(dp567
S'core'
p568
S'arduino'
p569
sS'mcu'
p570
S'atmega168'
p571
sS'f_cpu'
p572
S'16000000L'
p573
sS'variant'
p574
S'eightanaloginputs'
p575
ssS'bootloader'
p576
(dp577
S'extended_fuses'
p578
S'0x00'
p579
sS'high_fuses'
p580
S'0xdd'
p581
sS'low_fuses'
p582
S'0xff'
p583
sS'lock_bits'
p584
S'0x0F'
p585
sS'file'
p586
S'ATmegaBOOT_168_ng.hex'
p587
sS'path'
p588
S'atmega'
p589
sS'unlock_bits'
p590
S'0x3F'
p591
ssS'name'
p592
S'Arduino Mini w/ ATmega168'
p593
sS'upload'
p594
(dp595
S'speed'
p596
S'19200'
p597
sS'maximum_size'
p598
S'14336'
p599
sS'protocol'
p600
S'arduino'
p601
ssaa(lp602
S'ethernet'
p603
a(dp604
S'build'
p605
(dp606
S'f_cpu'
p607
S'16000000L'
p608
sS'mcu'
p609
S'atmega328p'
p610
sS'variant'
p611
S'standard'
p612
sS'core'
p613
S'arduino'
p614
ssS'bootloader'
p615
(dp616
S'extended_fuses'
p617
S'0x05'
p618
sS'high_fuses'
p619
S'0xde'
p620
sS'low_fuses'
p621
S'0xff'
p622
sS'lock_bits'
p623
S'0x0F'
p624
sS'file'
p625
S'optiboot_atmega328.hex'
p626
sS'path'
p627
S'optiboot'
p628
sS'unlock_bits'
p629
S'0x3F'
p630
ssS'name'
p631
S'Arduino Ethernet'
p632
sS'upload'
p633
(dp634
S'speed'
p635
S'115200'
p636
sS'maximum_size'
p637
S'32256'
p638
sS'protocol'
p639
S'arduino'
p640
ssaa(lp641
S'fio'
p642
a(dp643
S'build'
p644
(dp645
S'core'
p646
S'arduino'
p647
sS'mcu'
p648
S'atmega328p'
p649
sS'f_cpu'
p650
S'8000000L'
p651
sS'variant'
p652
S'eightanaloginputs'
p653
ssS'bootloader'
p654
(dp655
S'extended_fuses'
p656
S'0x05'
p657
sS'high_fuses'
p658
S'0xDA'
p659
sS'low_fuses'
p660
S'0xFF'
p661
sS'lock_bits'
p662
S'0x0F'
p663
sS'file'
p664
S'ATmegaBOOT_168_atmega328_pro_8MHz.hex'
p665
sS'path'
p666
S'arduino:atmega'
p667
sS'unlock_bits'
p668
S'0x3F'
p669
ssS'name'
p670
S'Arduino Fio'
p671
sS'upload'
p672
(dp673
S'speed'
p674
S'57600'
p675
sS'maximum_size'
p676
S'30720'
p677
sS'protocol'
p678
S'arduino'
p679
ssaa(lp680
S'bt328'
p681
a(dp682
S'build'
p683
(dp684
S'core'
p685
S'arduino'
p686
sS'mcu'
p687
S'atmega328p'
p688
sS'f_cpu'
p689
S'16000000L'
p690
sS'variant'
p691
S'eightanaloginputs'
p692
ssS'bootloader'
p693
(dp694
S'extended_fuses'
p695
S'0x05'
p696
sS'high_fuses'
p697
S'0xd8'
p698
sS'low_fuses'
p699
S'0xff'
p700
sS'lock_bits'
p701
S'0x0F'
p702
sS'file'
p703
S'ATmegaBOOT_168_atmega328_bt.hex'
p704
sS'path'
p705
S'bt'
p706
sS'unlock_bits'
p707
S'0x3F'
p708
ssS'name'
p709
S'Arduino BT w/ ATmega328'
p710
sS'upload'
p711
(dp712
S'speed'
p713
S'19200'
p714
sS'maximum_size'
p715
S'28672'
p716
sS'protocol'
p717
S'arduino'
p718
sS'disable_flushing'
p719
S'true'
p720
ssaa(lp721
S'bt'
p722
a(dp723
S'build'
p724
(dp725
S'core'
p726
S'arduino'
p727
sS'mcu'
p728
S'atmega168'
p729
sS'f_cpu'
p730
S'16000000L'
p731
sS'variant'
p732
S'eightanaloginputs'
p733
ssS'bootloader'
p734
(dp735
S'extended_fuses'
p736
S'0x00'
p737
sS'high_fuses'
p738
S'0xdd'
p739
sS'low_fuses'
p740
S'0xff'
p741
sS'lock_bits'
p742
S'0x0F'
p743
sS'file'
p744
S'ATmegaBOOT_168.hex'
p745
sS'path'
p746
S'bt'
p747
sS'unlock_bits'
p748
S'0x3F'
p749
ssS'name'
p750
S'Arduino BT w/ ATmega168'
p751
sS'upload'
p752
(dp753
S'speed'
p754
S'19200'
p755
sS'maximum_size'
p756
S'14336'
p757
sS'protocol'
p758
S'arduino'
p759
sS'disable_flushing'
p760
S'true'
p761
ssaa(lp762
S'LilyPadUSB'
p763
a(dp764
S'build'
p765
(dp766
S'core'
p767
S'arduino'
p768
sS'f_cpu'
p769
S'8000000L'
p770
sS'vid'
p771
S'0x1B4F'
p772
sS'pid'
p773
S'0x9208'
p774
sS'variant'
p775
S'leonardo'
p776
sS'mcu'
p777
S'atmega32u4'
p778
ssS'bootloader'
p779
(dp780
S'extended_fuses'
p781
S'0xce'
p782
sS'high_fuses'
p783
S'0xd8'
p784
sS'low_fuses'
p785
S'0xff'
p786
sS'lock_bits'
p787
S'0x2F'
p788
sS'file'
p789
S'Caterina-LilyPadUSB.hex'
p790
sS'path'
p791
S'caterina-LilyPadUSB'
p792
sS'unlock_bits'
p793
S'0x3F'
p794
ssS'name'
p795
S'LilyPad Arduino USB'
p796
sS'upload'
p797
(dp798
S'speed'
p799
S'57600'
p800
sS'maximum_size'
p801
S'28672'
p802
sS'protocol'
p803
S'avr109'
p804
sS'disable_flushing'
p805
S'true'
p806
ssaa(lp807
S'lilypad328'
p808
a(dp809
S'build'
p810
(dp811
S'core'
p812
S'arduino'
p813
sS'mcu'
p814
S'atmega328p'
p815
sS'f_cpu'
p816
S'8000000L'
p817
sS'variant'
p818
S'standard'
p819
ssS'bootloader'
p820
(dp821
S'extended_fuses'
p822
S'0x05'
p823
sS'high_fuses'
p824
S'0xDA'
p825
sS'low_fuses'
p826
S'0xFF'
p827
sS'lock_bits'
p828
S'0x0F'
p829
sS'file'
p830
S'ATmegaBOOT_168_atmega328_pro_8MHz.hex'
p831
sS'path'
p832
S'atmega'
p833
sS'unlock_bits'
p834
S'0x3F'
p835
ssS'name'
p836
S'LilyPad Arduino w/ ATmega328'
p837
sS'upload'
p838
(dp839
S'speed'
p840
S'57600'
p841
sS'maximum_size'
p842
S'30720'
p843
sS'protocol'
p844
S'arduino'
p845
ssaa(lp846
S'lilypad'
p847
a(dp848
S'build'
p849
(dp850
S'core'
p851
S'arduino'
p852
sS'mcu'
p853
S'atmega168'
p854
sS'f_cpu'
p855
S'8000000L'
p856
sS'variant'
p857
S'standard'
p858
ssS'bootloader'
p859
(dp860
S'extended_fuses'
p861
S'0x00'
p862
sS'high_fuses'
p863
S'0xdd'
p864
sS'low_fuses'
p865
S'0xe2'
p866
sS'lock_bits'
p867
S'0x0F'
p868
sS'file'
p869
S'LilyPadBOOT_168.hex'
p870
sS'path'
p871
S'lilypad'
p872
sS'unlock_bits'
p873
S'0x3F'
p874
ssS'name'
p875
S'LilyPad Arduino w/ ATmega168'
p876
sS'upload'
p877
(dp878
S'speed'
p879
S'19200'
p880
sS'maximum_size'
p881
S'14336'
p882
sS'protocol'
p883
S'arduino'
p884
ssaa(lp885
S'pro5v328'
p886
a(dp887
S'build'
p888
(dp889
S'core'
p890
S'arduino'
p891
sS'mcu'
p892
S'atmega328p'
p893
sS'f_cpu'
p894
S'16000000L'
p895
sS'variant'
p896
S'standard'
p897
ssS'bootloader'
p898
(dp899
S'extended_fuses'
p900
S'0x05'
p901
sS'high_fuses'
p902
S'0xDA'
p903
sS'low_fuses'
p904
S'0xFF'
p905
sS'lock_bits'
p906
S'0x0F'
p907
sS'file'
p908
S'ATmegaBOOT_168_atmega328.hex'
p909
sS'path'
p910
S'atmega'
p911
sS'unlock_bits'
p912
S'0x3F'
p913
ssS'name'
p914
S'Arduino Pro or Pro Mini (5V, 16 MHz) w/ ATmega328'
p915
sS'upload'
p916
(dp917
S'speed'
p918
S'57600'
p919
sS'maximum_size'
p920
S'30720'
p921
sS'protocol'
p922
S'arduino'
p923
ssaa(lp924
S'pro5v'
p925
a(dp926
S'build'
p927
(dp928
S'core'
p929
S'arduino'
p930
sS'mcu'
p931
S'atmega168'
p932
sS'f_cpu'
p933
S'16000000L'
p934
sS'variant'
p935
S'standard'
p936
ssS'bootloader'
p937
(dp938
S'extended_fuses'
p939
S'0x00'
p940
sS'high_fuses'
p941
S'0xdd'
p942
sS'low_fuses'
p943
S'0xff'
p944
sS'lock_bits'
p945
S'0x0F'
p946
sS'file'
p947
S'ATmegaBOOT_168_diecimila.hex'
p948
sS'path'
p949
S'atmega'
p950
sS'unlock_bits'
p951
S'0x3F'
p952
ssS'name'
p953
S'Arduino Pro or Pro Mini (5V, 16 MHz) w/ ATmega168'
p954
sS'upload'
p955
(dp956
S'speed'
p957
S'19200'
p958
sS'maximum_size'
p959
S'14336'
p960
sS'protocol'
p961
S'arduino'
p962
ssaa(lp963
S'pro328'
p964
a(dp965
S'build'
p966
(dp967
S'core'
p968
S'arduino'
p969
sS'mcu'
p970
S'atmega328p'
p971
sS'f_cpu'
p972
S'8000000L'
p973
sS'variant'
p974
S'standard'
p975
ssS'bootloader'
p976
(dp977
S'extended_fuses'
p978
S'0x05'
p979
sS'high_fuses'
p980
S'0xDA'
p981
sS'low_fuses'
p982
S'0xFF'
p983
sS'lock_bits'
p984
S'0x0F'
p985
sS'file'
p986
S'ATmegaBOOT_168_atmega328_pro_8MHz.hex'
p987
sS'path'
p988
S'atmega'
p989
sS'unlock_bits'
p990
S'0x3F'
p991
ssS'name'
p992
S'Arduino Pro or Pro Mini (3.3V, 8 MHz) w/ ATmega328'
p993
sS'upload'
p994
(dp995
S'speed'
p996
S'57600'
p997
sS'maximum_size'
p998
S'30720'
p999
sS'protocol'
p1000
S'arduino'
p1001
ssaa(lp1002
S'pro'
p1003
a(dp1004
S'build'
p1005
(dp1006
S'core'
p1007
S'arduino'
p1008
sS'mcu'
p1009
S'atmega168'
p1010
sS'f_cpu'
p1011
S'8000000L'
p1012
sS'variant'
p1013
S'standard'
p1014
ssS'bootloader'
p1015
(dp1016
S'extended_fuses'
p1017
S'0x00'
p1018
sS'high_fuses'
p1019
S'0xdd'
p1020
sS'low_fuses'
p1021
S'0xc6'
p1022
sS'lock_bits'
p1023
S'0x0F'
p1024
sS'file'
p1025
S'ATmegaBOOT_168_pro_8MHz.hex'
p1026
sS'path'
p1027
S'atmega'
p1028
sS'unlock_bits'
p1029
S'0x3F'
p1030
ssS'name'
p1031
S'Arduino Pro or Pro Mini (3.3V, 8 MHz) w/ ATmega168'
p1032
sS'upload'
p1033
(dp1034
S'speed'
p1035
S'19200'
p1036
sS'maximum_size'
p1037
S'14336'
p1038
sS'protocol'
p1039
S'arduino'
p1040
ssaa(lp1041
S'atmega168'
p1042
a(dp1043
S'build'
p1044
(dp1045
S'core'
p1046
S'arduino'
p1047
sS'mcu'
p1048
S'atmega168'
p1049
sS'f_cpu'
p1050
S'16000000L'
p1051
sS'variant'
p1052
S'standard'
p1053
ssS'bootloader'
p1054
(dp1055
S'extended_fuses'
p1056
S'0x00'
p1057
sS'high_fuses'
p1058
S'0xdd'
p1059
sS'low_fuses'
p1060
S'0xff'
p1061
sS'lock_bits'
p1062
S'0x0F'
p1063
sS'file'
p1064
S'ATmegaBOOT_168_ng.hex'
p1065
sS'path'
p1066
S'atmega'
p1067
sS'unlock_bits'
p1068
S'0x3F'
p1069
ssS'name'
p1070
S'Arduino NG or older w/ ATmega168'
p1071
sS'upload'
p1072
(dp1073
S'speed'
p1074
S'19200'
p1075
sS'maximum_size'
p1076
S'14336'
p1077
sS'protocol'
p1078
S'arduino'
p1079
ssaa(lp1080
S'atmega8'
p1081
a(dp1082
S'build'
p1083
(dp1084
S'core'
p1085
S'arduino'
p1086
sS'mcu'
p1087
S'atmega8'
p1088
sS'f_cpu'
p1089
S'16000000L'
p1090
sS'variant'
p1091
S'standard'
p1092
ssS'bootloader'
p1093
(dp1094
S'high_fuses'
p1095
S'0xca'
p1096
sS'low_fuses'
p1097
S'0xdf'
p1098
sS'lock_bits'
p1099
S'0x0F'
p1100
sS'file'
p1101
S'ATmegaBOOT-prod-firmware-2009-11-07.hex'
p1102
sS'path'
p1103
S'atmega8'
p1104
sS'unlock_bits'
p1105
S'0x3F'
p1106
ssS'name'
p1107
S'Arduino NG or older w/ ATmega8'
p1108
sS'upload'
p1109
(dp1110
S'speed'
p1111
S'19200'
p1112
sS'maximum_size'
p1113
S'7168'
p1114
sS'protocol'
p1115
S'arduino'
p1116
ssaatp1117
Rp1118
(dp1119
S'default'
p1120
S'uno'
p1121
sbtp1122
a(S'cxx'
p1123
S'/usr/bin/avr-g++'
p1124
tp1125
a.